target datalayout = "e-m:e-p270:32:32-p271:32:32-p272:64:64-i64:64-i128:128-f80:128-n8:16:32:64-S128"
target triple = "x86_64-pc-linux-gnu"

%struct.ForEachState = type { ptr, i32 }
%struct.List = type { i32, i32, i32, ptr, [0 x %union.ListCell] }
%union.ListCell = type { ptr }
%struct.ParseState = type { ptr, ptr, i32, i32, ptr, ptr, ptr, ptr, ptr, ptr, i8, ptr, ptr, ptr, ptr, ptr, ptr, i8, ptr, i32, i32, ptr, ptr, i8, i8, ptr, i8, i8, i8, i8, i8, ptr, ptr, ptr, ptr, ptr, ptr }
%struct.ParseNamespaceItem = type { ptr, ptr, i32, ptr, ptr, i8, i8, i8, i8, i32 }

; Function Attrs: nounwind uwtable
define internal void @setNamespaceLateralState(ptr noundef %0, i1 noundef zeroext %1, i1 noundef zeroext %2) #0 {
  %4 = alloca ptr, align 8
  %5 = alloca i8, align 1
  %6 = alloca i8, align 1
  %7 = alloca ptr, align 8
  %8 = alloca %struct.ForEachState, align 8
  %9 = alloca ptr, align 8
  store ptr %0, ptr %4, align 8
  %10 = zext i1 %1 to i8
  store i8 %10, ptr %5, align 1
  %11 = zext i1 %2 to i8
  store i8 %11, ptr %6, align 1
  call void @llvm.lifetime.start.p0(i64 8, ptr %7) #8
  call void @llvm.lifetime.start.p0(i64 16, ptr %8) #8
  %12 = getelementptr inbounds nuw %struct.ForEachState, ptr %8, i32 0, i32 0
  %13 = load ptr, ptr %4, align 8
  store ptr %13, ptr %12, align 8
  %14 = getelementptr inbounds nuw %struct.ForEachState, ptr %8, i32 0, i32 1
  store i32 0, ptr %14, align 8
  %15 = getelementptr i8, ptr %8, i64 12
  call void @llvm.memset.p0.i64(ptr align 4 %15, i8 0, i64 4, i1 false)
  br label %16

16:                                               ; preds = %55, %3
  %17 = getelementptr inbounds nuw %struct.ForEachState, ptr %8, i32 0, i32 0
  %18 = load ptr, ptr %17, align 8
  %19 = icmp ne ptr %18, null
  br i1 %19, label %20, label %37

20:                                               ; preds = %16
  %21 = getelementptr inbounds nuw %struct.ForEachState, ptr %8, i32 0, i32 1
  %22 = load i32, ptr %21, align 8
  %23 = getelementptr inbounds nuw %struct.ForEachState, ptr %8, i32 0, i32 0
  %24 = load ptr, ptr %23, align 8
  %25 = getelementptr inbounds nuw %struct.List, ptr %24, i32 0, i32 1
  %26 = load i32, ptr %25, align 4
  %27 = icmp slt i32 %22, %26
  br i1 %27, label %28, label %37

28:                                               ; preds = %20
  %29 = getelementptr inbounds nuw %struct.ForEachState, ptr %8, i32 0, i32 0
  %30 = load ptr, ptr %29, align 8
  %31 = getelementptr inbounds nuw %struct.List, ptr %30, i32 0, i32 3
  %32 = load ptr, ptr %31, align 8
  %33 = getelementptr inbounds nuw %struct.ForEachState, ptr %8, i32 0, i32 1
  %34 = load i32, ptr %33, align 8
  %35 = sext i32 %34 to i64
  %36 = getelementptr inbounds %union.ListCell, ptr %32, i64 %35
  store ptr %36, ptr %7, align 8
  br label %38

37:                                               ; preds = %20, %16
  store ptr null, ptr %7, align 8
  br label %38

38:                                               ; preds = %37, %28
  %39 = phi i32 [ 1, %28 ], [ 0, %37 ]
  %40 = icmp ne i32 %39, 0
  br i1 %40, label %42, label %41

41:                                               ; preds = %38
  call void @llvm.lifetime.end.p0(i64 16, ptr %8) #8
  br label %59

42:                                               ; preds = %38
  call void @llvm.lifetime.start.p0(i64 8, ptr %9) #8
  %43 = load ptr, ptr %7, align 8
  %44 = load ptr, ptr %43, align 8
  store ptr %44, ptr %9, align 8
  %45 = load i8, ptr %5, align 1, !range !6, !noundef !7
  %46 = trunc i8 %45 to i1
  %47 = load ptr, ptr %9, align 8
  %48 = getelementptr inbounds nuw %struct.ParseNamespaceItem, ptr %47, i32 0, i32 7
  %49 = zext i1 %46 to i8
  store i8 %49, ptr %48, align 2
  %50 = load i8, ptr %6, align 1, !range !6, !noundef !7
  %51 = trunc i8 %50 to i1
  %52 = load ptr, ptr %9, align 8
  %53 = getelementptr inbounds nuw %struct.ParseNamespaceItem, ptr %52, i32 0, i32 8
  %54 = zext i1 %51 to i8
  store i8 %54, ptr %53, align 1
  call void @llvm.lifetime.end.p0(i64 8, ptr %9) #8
  br label %55

55:                                               ; preds = %42
  %56 = getelementptr inbounds nuw %struct.ForEachState, ptr %8, i32 0, i32 1
  %57 = load i32, ptr %56, align 8
  %58 = add i32 %57, 1
  store i32 %58, ptr %56, align 8
  br label %16, !llvm.loop !17

59:                                               ; preds = %41
  call void @llvm.lifetime.end.p0(i64 8, ptr %7) #8
  ret void
}

; Function Attrs: nounwind uwtable
define dso_local void @transformFromClause(ptr noundef %0, ptr noundef %1) #0 {
  %3 = alloca ptr, align 8
  %4 = alloca ptr, align 8
  %5 = alloca ptr, align 8
  %6 = alloca %struct.ForEachState, align 8
  %7 = alloca ptr, align 8
  %8 = alloca ptr, align 8
  %9 = alloca ptr, align 8
  store ptr %0, ptr %3, align 8
  store ptr %1, ptr %4, align 8
  call void @llvm.lifetime.start.p0(i64 8, ptr %5) #8
  call void @llvm.lifetime.start.p0(i64 16, ptr %6) #8
  %10 = getelementptr inbounds nuw %struct.ForEachState, ptr %6, i32 0, i32 0
  %11 = load ptr, ptr %4, align 8
  store ptr %11, ptr %10, align 8
  %12 = getelementptr inbounds nuw %struct.ForEachState, ptr %6, i32 0, i32 1
  store i32 0, ptr %12, align 8
  %13 = getelementptr i8, ptr %6, i64 12
  call void @llvm.memset.p0.i64(ptr align 4 %13, i8 0, i64 4, i1 false)
  br label %14

14:                                               ; preds = %66, %2
  %15 = getelementptr inbounds nuw %struct.ForEachState, ptr %6, i32 0, i32 0
  %16 = load ptr, ptr %15, align 8
  %17 = icmp ne ptr %16, null
  br i1 %17, label %18, label %35

18:                                               ; preds = %14
  %19 = getelementptr inbounds nuw %struct.ForEachState, ptr %6, i32 0, i32 1
  %20 = load i32, ptr %19, align 8
  %21 = getelementptr inbounds nuw %struct.ForEachState, ptr %6, i32 0, i32 0
  %22 = load ptr, ptr %21, align 8
  %23 = getelementptr inbounds nuw %struct.List, ptr %22, i32 0, i32 1
  %24 = load i32, ptr %23, align 4
  %25 = icmp slt i32 %20, %24
  br i1 %25, label %26, label %35

26:                                               ; preds = %18
  %27 = getelementptr inbounds nuw %struct.ForEachState, ptr %6, i32 0, i32 0
  %28 = load ptr, ptr %27, align 8
  %29 = getelementptr inbounds nuw %struct.List, ptr %28, i32 0, i32 3
  %30 = load ptr, ptr %29, align 8
  %31 = getelementptr inbounds nuw %struct.ForEachState, ptr %6, i32 0, i32 1
  %32 = load i32, ptr %31, align 8
  %33 = sext i32 %32 to i64
  %34 = getelementptr inbounds %union.ListCell, ptr %30, i64 %33
  store ptr %34, ptr %5, align 8
  br label %36

35:                                               ; preds = %18, %14
  store ptr null, ptr %5, align 8
  br label %36

36:                                               ; preds = %35, %26
  %37 = phi i32 [ 1, %26 ], [ 0, %35 ]
  %38 = icmp ne i32 %37, 0
  br i1 %38, label %40, label %39

39:                                               ; preds = %36
  call void @llvm.lifetime.end.p0(i64 16, ptr %6) #8
  br label %70

40:                                               ; preds = %36
  call void @llvm.lifetime.start.p0(i64 8, ptr %7) #8
  %41 = load ptr, ptr %5, align 8
  %42 = load ptr, ptr %41, align 8
  store ptr %42, ptr %7, align 8
  call void @llvm.lifetime.start.p0(i64 8, ptr %8) #8
  call void @llvm.lifetime.start.p0(i64 8, ptr %9) #8
  %43 = load ptr, ptr %3, align 8
  %44 = load ptr, ptr %7, align 8
  %45 = call ptr @transformFromClauseItem(ptr noundef %43, ptr noundef %44, ptr noundef %8, ptr noundef %9)
  store ptr %45, ptr %7, align 8
  %46 = load ptr, ptr %3, align 8
  %47 = load ptr, ptr %3, align 8
  %48 = getelementptr inbounds nuw %struct.ParseState, ptr %47, i32 0, i32 9
  %49 = load ptr, ptr %48, align 8
  %50 = load ptr, ptr %9, align 8
  call void @checkNameSpaceConflicts(ptr noundef %46, ptr noundef %49, ptr noundef %50)
  %51 = load ptr, ptr %9, align 8
  call void @setNamespaceLateralState(ptr noundef %51, i1 noundef zeroext true, i1 noundef zeroext true)
  %52 = load ptr, ptr %3, align 8
  %53 = getelementptr inbounds nuw %struct.ParseState, ptr %52, i32 0, i32 8
  %54 = load ptr, ptr %53, align 8
  %55 = load ptr, ptr %7, align 8
  %56 = call ptr @lappend(ptr noundef %54, ptr noundef %55)
  %57 = load ptr, ptr %3, align 8
  %58 = getelementptr inbounds nuw %struct.ParseState, ptr %57, i32 0, i32 8
  store ptr %56, ptr %58, align 8
  %59 = load ptr, ptr %3, align 8
  %60 = getelementptr inbounds nuw %struct.ParseState, ptr %59, i32 0, i32 9
  %61 = load ptr, ptr %60, align 8
  %62 = load ptr, ptr %9, align 8
  %63 = call ptr @list_concat(ptr noundef %61, ptr noundef %62)
  %64 = load ptr, ptr %3, align 8
  %65 = getelementptr inbounds nuw %struct.ParseState, ptr %64, i32 0, i32 9
  store ptr %63, ptr %65, align 8
  call void @llvm.lifetime.end.p0(i64 8, ptr %9) #8
  call void @llvm.lifetime.end.p0(i64 8, ptr %8) #8
  call void @llvm.lifetime.end.p0(i64 8, ptr %7) #8
  br label %66

66:                                               ; preds = %40
  %67 = getelementptr inbounds nuw %struct.ForEachState, ptr %6, i32 0, i32 1
  %68 = load i32, ptr %67, align 8
  %69 = add i32 %68, 1
  store i32 %69, ptr %67, align 8
  br label %14, !llvm.loop !4

70:                                               ; preds = %39
  %71 = load ptr, ptr %3, align 8
  %72 = getelementptr inbounds nuw %struct.ParseState, ptr %71, i32 0, i32 9
  %73 = load ptr, ptr %72, align 8
  call void @setNamespaceLateralState(ptr noundef %73, i1 noundef zeroext false, i1 noundef zeroext true)
  call void @llvm.lifetime.end.p0(i64 8, ptr %5) #8
  ret void
}