; Function Attrs: nounwind uwtable
define dso_local void @transformFromClause(ptr noundef %0, ptr noundef readonly captures(address_is_null) %1) local_unnamed_addr #0 {
  %3 = alloca ptr, align 8
  %4 = alloca ptr, align 8
  %5 = getelementptr inbounds nuw i8, ptr %1, i64 4
  %.not = icmp eq ptr %1, null
  br i1 %.not, label %._crit_edge, label %.lr.ph

.lr.ph:                                           ; preds = %2
  %6 = getelementptr inbounds nuw i8, ptr %1, i64 16
  %7 = getelementptr inbounds nuw i8, ptr %0, i64 64
  %8 = getelementptr inbounds nuw i8, ptr %0, i64 56
  %9 = load i32, ptr %5, align 4
  %10 = icmp sgt i32 %9, 0
  br i1 %10, label %.lr.ph29, label %._crit_edge

._crit_edge:                                      ; preds = %setNamespaceLateralState.exit23, %.lr.ph, %2
  %11 = getelementptr inbounds nuw i8, ptr %0, i64 64
  %12 = load ptr, ptr %11, align 8
  %13 = getelementptr inbounds nuw i8, ptr %12, i64 4
  %.not.i = icmp eq ptr %12, null
  br i1 %.not.i, label %setNamespaceLateralState.exit, label %.lr.ph.i

.lr.ph.i:                                         ; preds = %._crit_edge
  %14 = getelementptr inbounds nuw i8, ptr %12, i64 16
  %15 = load i32, ptr %13, align 4
  %16 = icmp sgt i32 %15, 0
  br i1 %16, label %.lr.ph16.i, label %setNamespaceLateralState.exit

.lr.ph16.i:                                       ; preds = %.lr.ph.i, %.lr.ph16.i
  %indvars.iv.i = phi i64 [ %indvars.iv.next.i, %.lr.ph16.i ], [ 0, %.lr.ph.i ]
  %17 = load ptr, ptr %14, align 8
  %18 = getelementptr inbounds nuw %union.ListCell, ptr %17, i64 %indvars.iv.i
  %19 = load ptr, ptr %18, align 8
  %20 = getelementptr inbounds nuw i8, ptr %19, i64 42
  store i8 0, ptr %20, align 2
  %21 = getelementptr inbounds nuw i8, ptr %19, i64 43
  store i8 1, ptr %21, align 1
  %indvars.iv.next.i = add nuw nsw i64 %indvars.iv.i, 1
  %22 = load i32, ptr %13, align 4
  %23 = sext i32 %22 to i64
  %24 = icmp slt i64 %indvars.iv.next.i, %23
  br i1 %24, label %.lr.ph16.i, label %setNamespaceLateralState.exit

setNamespaceLateralState.exit:                    ; preds = %.lr.ph16.i, %._crit_edge, %.lr.ph.i
  ret void

.lr.ph29:                                         ; preds = %.lr.ph, %setNamespaceLateralState.exit23
  %indvars.iv = phi i64 [ %indvars.iv.next, %setNamespaceLateralState.exit23 ], [ 0, %.lr.ph ]
  %25 = load ptr, ptr %6, align 8
  %26 = getelementptr inbounds nuw %union.ListCell, ptr %25, i64 %indvars.iv
  %27 = load ptr, ptr %26, align 8
  call void @llvm.lifetime.start.p0(i64 8, ptr nonnull %3) #9
  call void @llvm.lifetime.start.p0(i64 8, ptr nonnull %4) #9
  %28 = call fastcc ptr @transformFromClauseItem(ptr noundef %0, ptr noundef %27, ptr noundef %3, ptr noundef %4)
  %29 = load ptr, ptr %7, align 8
  %30 = load ptr, ptr %4, align 8
  tail call void @checkNameSpaceConflicts(ptr noundef %0, ptr noundef %29, ptr noundef %30) #9
  %31 = getelementptr inbounds nuw i8, ptr %30, i64 4
  %.not.i18 = icmp eq ptr %30, null
  br i1 %.not.i18, label %setNamespaceLateralState.exit23, label %.lr.ph.i19

.lr.ph.i19:                                       ; preds = %.lr.ph29
  %32 = getelementptr inbounds nuw i8, ptr %30, i64 16
  %33 = load i32, ptr %31, align 4
  %34 = icmp sgt i32 %33, 0
  br i1 %34, label %.lr.ph16.i20, label %setNamespaceLateralState.exit23

.lr.ph16.i20:                                     ; preds = %.lr.ph.i19, %.lr.ph16.i20
  %indvars.iv.i21 = phi i64 [ %indvars.iv.next.i22, %.lr.ph16.i20 ], [ 0, %.lr.ph.i19 ]
  %35 = load ptr, ptr %32, align 8
  %36 = getelementptr inbounds nuw %union.ListCell, ptr %35, i64 %indvars.iv.i21
  %37 = load ptr, ptr %36, align 8
  %38 = getelementptr inbounds nuw i8, ptr %37, i64 42
  store i8 1, ptr %38, align 2
  %39 = getelementptr inbounds nuw i8, ptr %37, i64 43
  store i8 1, ptr %39, align 1
  %indvars.iv.next.i22 = add nuw nsw i64 %indvars.iv.i21, 1
  %40 = load i32, ptr %31, align 4
  %41 = sext i32 %40 to i64
  %42 = icmp slt i64 %indvars.iv.next.i22, %41
  br i1 %42, label %.lr.ph16.i20, label %setNamespaceLateralState.exit23

setNamespaceLateralState.exit23:                  ; preds = %.lr.ph16.i20, %.lr.ph29, %.lr.ph.i19
  %43 = load ptr, ptr %8, align 8
  %44 = tail call ptr @lappend(ptr noundef %43, ptr noundef %28) #9
  store ptr %44, ptr %8, align 8
  %45 = load ptr, ptr %7, align 8
  %46 = tail call ptr @list_concat(ptr noundef %45, ptr noundef %30) #9
  store ptr %46, ptr %7, align 8
  call void @llvm.lifetime.end.p0(i64 8, ptr nonnull %4) #9
  call void @llvm.lifetime.end.p0(i64 8, ptr nonnull %3) #9
  %indvars.iv.next = add nuw nsw i64 %indvars.iv, 1
  %47 = load i32, ptr %5, align 4
  %48 = sext i32 %47 to i64
  %49 = icmp slt i64 %indvars.iv.next, %48
  br i1 %49, label %.lr.ph29, label %._crit_edge
}